; ModuleID = 'source-C-CXX/15/385.c'
source_filename = "source-C-CXX/15/385.c"
target datalayout = "e-m:e-p270:32:32-p271:32:32-p272:64:64-i64:64-f80:128-n8:16:32:64-S128"
target triple = "x86_64-pc-linux-gnu"

; Function Attrs: nounwind sspstrong uwtable
define dso_local i32 @main(i32 %0, i8** nocapture readnone %1) local_unnamed_addr #0 {
  %3 = alloca [80 x i8], align 16
  %4 = getelementptr inbounds [80 x i8], [80 x i8]* %3, i64 0, i64 0
  call void @llvm.lifetime.start.p0i8(i64 80, i8* nonnull %4) #5
  %5 = call i32 (i8*, ...) bitcast (i32 (...)* @gets to i32 (i8*, ...)*)(i8* nonnull %4) #5
  %6 = call i64 @strlen(i8* noundef nonnull %4) #6
  %7 = trunc i64 %6 to i32
  %8 = add i32 %7, -1
  %9 = icmp sgt i32 %8, -1
  br i1 %9, label %10, label %19

10:                                               ; preds = %2, %10
  %11 = phi i32 [ %17, %10 ], [ %8, %2 ]
  %12 = zext i32 %11 to i64
  %13 = getelementptr inbounds [80 x i8], [80 x i8]* %3, i64 0, i64 %12
  %14 = load i8, i8* %13, align 1, !tbaa !5
  %15 = sext i8 %14 to i32
  %16 = call i32 @putchar(i32 %15)
  %17 = add nsw i32 %11, -1
  %18 = icmp sgt i32 %11, 0
  br i1 %18, label %10, label %19, !llvm.loop !8

19:                                               ; preds = %10, %2
  call void @llvm.lifetime.end.p0i8(i64 80, i8* nonnull %4) #5
  ret i32 0
}

; Function Attrs: argmemonly mustprogress nofree nosync nounwind willreturn
declare void @llvm.lifetime.start.p0i8(i64 immarg, i8* nocapture) #1

declare i32 @gets(...) local_unnamed_addr #2

; Function Attrs: argmemonly mustprogress nofree nounwind readonly willreturn
declare i64 @strlen(i8* nocapture) local_unnamed_addr #3

; Function Attrs: argmemonly mustprogress nofree nosync nounwind willreturn
declare void @llvm.lifetime.end.p0i8(i64 immarg, i8* nocapture) #1

; Function Attrs: nofree nounwind
declare noundef i32 @putchar(i32 noundef) local_unnamed_addr #4


!llvm.module.flags = !{!0, !1, !2, !3}
!llvm.ident = !{!4}

!0 = !{i32 1, !"wchar_size", i32 4}
!1 = !{i32 7, !"PIC Level", i32 2}
!2 = !{i32 7, !"PIE Level", i32 2}
!3 = !{i32 7, !"uwtable", i32 1}
!4 = !{!"clang version 13.0.0"}
!5 = !{!6, !6, i64 0}
!6 = !{!"omnipotent char", !7, i64 0}
!7 = !{!"Simple C/C++ TBAA"}
!8 = distinct !{!8, !9}
!9 = !{!"llvm.loop.mustprogress"}
